libcmrt.so.1:CreateCmDevice
libcmrt.so.1:Ctx_Destroy
libcmrt.so.1:Ctx_FlushCommandBuffer
libcmrt.so.1:Ctx_GetCommandBuffer
libcmrt.so.1:Ctx_InitCmdBufferPool
libcmrt.so.1:Ctx_InitContext
libcmrt.so.1:Ctx_InsertCmdBufferToPool
libcmrt.so.1:Ctx_Refresh
libcmrt.so.1:Ctx_ReleaseCmdBufferPool
libcmrt.so.1:Ctx_ReturnCommandBuffer
libcmrt.so.1:Ctx_WaitAndReleaseCmdBuffer
libcmrt.so.1:Ctx_WaitForAvailableCmdBo
libcmrt.so.1:DbgGetSysRoutineBinary
libcmrt.so.1:DbgNotifyDeviceDestruction
libcmrt.so.1:DbgNotifyKernelBinary
libcmrt.so.1:DbgNotifyNewDevice
libcmrt.so.1:DestroyCmDevice
libcmrt.so.1:FreeLibrary
libcmrt.so.1:GENOS_AlignedAllocMemory
libcmrt.so.1:GENOS_AlignedFreeMemory
libcmrt.so.1:GENOS_AllocAndZeroMemory
libcmrt.so.1:GENOS_AllocMemory
libcmrt.so.1:GENOS_CloseHandle
libcmrt.so.1:GENOS_CompAssertEnableDisable
libcmrt.so.1:GENOS_CreateMutex
libcmrt.so.1:GENOS_CreateSemaphore
libcmrt.so.1:GENOS_CreateThread
libcmrt.so.1:GENOS_DestroyMutex
libcmrt.so.1:GENOS_DestroySemaphore
libcmrt.so.1:GENOS_FillMemory
libcmrt.so.1:GENOS_FreeLibrary
libcmrt.so.1:GENOS_FreeMemory
libcmrt.so.1:GENOS_GetProcAddress
libcmrt.so.1:GENOS_LoadLibrary
libcmrt.so.1:GENOS_LockMutex
libcmrt.so.1:GENOS_Message
libcmrt.so.1:GENOS_MessageClose
libcmrt.so.1:GENOS_MessageInit
libcmrt.so.1:GENOS_MessageInitComponent
libcmrt.so.1:GENOS_PostSemaphore
libcmrt.so.1:GENOS_QueryPerformanceCounter
libcmrt.so.1:GENOS_QueryPerformanceFrequency
libcmrt.so.1:GENOS_SecureMemcpy
libcmrt.so.1:GENOS_SecureStrcat
libcmrt.so.1:GENOS_SecureStrcpy
libcmrt.so.1:GENOS_SecureStringPrint
libcmrt.so.1:GENOS_SecureStrtok
libcmrt.so.1:GENOS_SecureVStringPrint
libcmrt.so.1:GENOS_SetCompMessageLevel
libcmrt.so.1:GENOS_SetCompMessageLevelAll
libcmrt.so.1:GENOS_SetSubCompMessageLevel
libcmrt.so.1:GENOS_ShouldAssert
libcmrt.so.1:GENOS_Sleep
libcmrt.so.1:GENOS_StatusToOsResult
libcmrt.so.1:GENOS_SubCompAssertEnableDisable
libcmrt.so.1:GENOS_UnlockMutex
libcmrt.so.1:GENOS_WaitSemaphore
libcmrt.so.1:GENOS_ZeroMemory
libcmrt.so.1:GetProcAddress
libcmrt.so.1:IntelGen_GetPixelsPerSample
libcmrt.so.1:IntelGen_GetScratchSpaceSize_g75
libcmrt.so.1:IntelGen_GetScratchSpaceSize_g8
libcmrt.so.1:IntelGen_GetSurfaceInfo
libcmrt.so.1:IntelGen_HwAddBatchBufferEndCmdBb
libcmrt.so.1:IntelGen_HwAddMediaObjectCmdBb_g75
libcmrt.so.1:IntelGen_HwAddPipeControlCmdBb_g75
libcmrt.so.1:IntelGen_HwAdjustBoundary
libcmrt.so.1:IntelGen_HwAllocateBB
libcmrt.so.1:IntelGen_HwAllocateCommands
libcmrt.so.1:IntelGen_HwAllocateGSH
libcmrt.so.1:IntelGen_HwAllocateSSH
libcmrt.so.1:IntelGen_HwAllocateSshBuffer
libcmrt.so.1:IntelGen_HwAssignBindingTable_g75
libcmrt.so.1:IntelGen_HwAssignBindingTable_g8
libcmrt.so.1:IntelGen_HwAssignMediaState
libcmrt.so.1:IntelGen_HwAssignSshInstance
libcmrt.so.1:IntelGen_HwAssignSurfaceState
libcmrt.so.1:IntelGen_HwBindSurfaceState
libcmrt.so.1:IntelGen_HwConvertToNanoSeconds_g75
libcmrt.so.1:IntelGen_HwDestroy
libcmrt.so.1:IntelGen_HwFreeBB
libcmrt.so.1:IntelGen_HwFreeCommands
libcmrt.so.1:IntelGen_HwFreeGSH
libcmrt.so.1:IntelGen_HwFreeSSH
libcmrt.so.1:IntelGen_HwFreeSshBuffer
libcmrt.so.1:IntelGen_HwGetAlignUnit
libcmrt.so.1:IntelGen_HwGetCurBindingTableBase
libcmrt.so.1:IntelGen_HwGetCurSurfaceStateBase
libcmrt.so.1:IntelGen_HwGetMediaWalkerBlockSize_g75
libcmrt.so.1:IntelGen_HwGetMediaWalkerBlockSize_g9
libcmrt.so.1:IntelGen_HwGetMediaWalkerStatus_g75
libcmrt.so.1:IntelGen_HwGetOsInterface
libcmrt.so.1:IntelGen_HwGetSurfaceMemoryObjectControl_g75
libcmrt.so.1:IntelGen_HwGetSurfaceMemoryObjectControl_g8
libcmrt.so.1:IntelGen_HwGetSurfaceStateEntries
libcmrt.so.1:IntelGen_HwInitCommandsCommon
libcmrt.so.1:IntelGen_HwInitCommands_g75
libcmrt.so.1:IntelGen_HwInitCommands_g8
libcmrt.so.1:IntelGen_HwInitCommands_g9
libcmrt.so.1:IntelGen_HwInitCommands_g95
libcmrt.so.1:IntelGen_HwInitInterface
libcmrt.so.1:IntelGen_HwInitInterfaceDescriptor_g75
libcmrt.so.1:IntelGen_HwInitInterfaceDescriptor_g8
libcmrt.so.1:IntelGen_HwInitInterfaceOS
libcmrt.so.1:IntelGen_HwInitInterface_g75
libcmrt.so.1:IntelGen_HwInitInterface_g8
libcmrt.so.1:IntelGen_HwInitInterface_g9
libcmrt.so.1:IntelGen_HwInitialize
libcmrt.so.1:IntelGen_HwIs2PlaneNV12Needed_g75
libcmrt.so.1:IntelGen_HwLoadCurbeData_g75
libcmrt.so.1:IntelGen_HwLoadCurbeData_g8
libcmrt.so.1:IntelGen_HwLockBB
libcmrt.so.1:IntelGen_HwLockGSH
libcmrt.so.1:IntelGen_HwRefreshSync
libcmrt.so.1:IntelGen_HwResetGSH
libcmrt.so.1:IntelGen_HwResetHwStates
libcmrt.so.1:IntelGen_HwSelectWalkerStateMode_g75
libcmrt.so.1:IntelGen_HwSendBatchBufferEnd
libcmrt.so.1:IntelGen_HwSendBatchBufferStart_g75
libcmrt.so.1:IntelGen_HwSendBatchBufferStart_g8
libcmrt.so.1:IntelGen_HwSendCommandBufferHeader
libcmrt.so.1:IntelGen_HwSendCurbeLoad_g75
libcmrt.so.1:IntelGen_HwSendGpGpuWalkerState_g75
libcmrt.so.1:IntelGen_HwSendGpGpuWalkerState_g8
libcmrt.so.1:IntelGen_HwSendIDLoad_g75
libcmrt.so.1:IntelGen_HwSendLoadRegImmCmd_g75
libcmrt.so.1:IntelGen_HwSendMIArbCheck_g75
libcmrt.so.1:IntelGen_HwSendMISetPredicateCmd_g75
libcmrt.so.1:IntelGen_HwSendMediaStateFlush_g75
libcmrt.so.1:IntelGen_HwSendPipeControl_g75
libcmrt.so.1:IntelGen_HwSendPipeControl_g8
libcmrt.so.1:IntelGen_HwSendPipelineSelectCmd_g75
libcmrt.so.1:IntelGen_HwSendPipelineSelectCmd_g9
libcmrt.so.1:IntelGen_HwSendStateBaseAddr_g75
libcmrt.so.1:IntelGen_HwSendStateBaseAddr_g8
libcmrt.so.1:IntelGen_HwSendStateSip_g8
libcmrt.so.1:IntelGen_HwSendSurfaces_g75_PatchList
libcmrt.so.1:IntelGen_HwSendSurfaces_g8
libcmrt.so.1:IntelGen_HwSendSurfaces_g9
libcmrt.so.1:IntelGen_HwSendSyncTag_g75
libcmrt.so.1:IntelGen_HwSendVfeState_g75
libcmrt.so.1:IntelGen_HwSendVfeState_g8
libcmrt.so.1:IntelGen_HwSendVfeState_g9
libcmrt.so.1:IntelGen_HwSendWalkerState_g75
libcmrt.so.1:IntelGen_HwSendWalkerState_g8
libcmrt.so.1:IntelGen_HwSendWalkerState_g9
libcmrt.so.1:IntelGen_HwSetVfeStateParams
libcmrt.so.1:IntelGen_HwSetupBufferSurfaceState_g75
libcmrt.so.1:IntelGen_HwSetupBufferSurfaceState_g8
libcmrt.so.1:IntelGen_HwSetupBufferSurfaceState_g9
libcmrt.so.1:IntelGen_HwSetupInterfaceDescriptor_g75
libcmrt.so.1:IntelGen_HwSetupInterfaceDescriptor_g8
libcmrt.so.1:IntelGen_HwSetupInterfaceDescriptor_g9
libcmrt.so.1:IntelGen_HwSetupSurfaceState_g75
libcmrt.so.1:IntelGen_HwSetupSurfaceState_g75_base
libcmrt.so.1:IntelGen_HwSetupSurfaceState_g8
libcmrt.so.1:IntelGen_HwSetupSurfaceState_g9
libcmrt.so.1:IntelGen_HwSkipBatchBufferEndCmdBb
libcmrt.so.1:IntelGen_HwSkipPipeControlCmdBb_g75
libcmrt.so.1:IntelGen_HwUnlockBB
libcmrt.so.1:IntelGen_HwUnlockGSH
libcmrt.so.1:IntelGen_OsAddCommand
libcmrt.so.1:IntelGen_OsAdjustCmdBufferFreeSpace
libcmrt.so.1:IntelGen_OsAllocateResource
libcmrt.so.1:IntelGen_OsClear_OsGpuContext
libcmrt.so.1:IntelGen_OsDestroy
libcmrt.so.1:IntelGen_OsFmt_GenToOs
libcmrt.so.1:IntelGen_OsFmt_OsToGen
libcmrt.so.1:IntelGen_OsFreeResource
libcmrt.so.1:IntelGen_OsGetCmdBufferSpace
libcmrt.so.1:IntelGen_OsGetCommandBuffer
libcmrt.so.1:IntelGen_OsGetIndirectState
libcmrt.so.1:IntelGen_OsGetIndirectStatePointer
libcmrt.so.1:IntelGen_OsGetPlatform
libcmrt.so.1:IntelGen_OsGetResourceAllocationIndex
libcmrt.so.1:IntelGen_OsInitInterface
libcmrt.so.1:IntelGen_OsInitInterfaceComp
libcmrt.so.1:IntelGen_OsLockResource
libcmrt.so.1:IntelGen_OsRegisterResource
libcmrt.so.1:IntelGen_OsResetCommandBuffer
libcmrt.so.1:IntelGen_OsResetOsStates
libcmrt.so.1:IntelGen_OsResetResource
libcmrt.so.1:IntelGen_OsResetResourceAllocation
libcmrt.so.1:IntelGen_OsResizeCommandBuffer
libcmrt.so.1:IntelGen_OsResizeCommandBufferAndPatchList
libcmrt.so.1:IntelGen_OsResourceIsNull
libcmrt.so.1:IntelGen_OsReturnCommandBuffer
libcmrt.so.1:IntelGen_OsSetIndirectStateSize
libcmrt.so.1:IntelGen_OsSetPatchEntry
libcmrt.so.1:IntelGen_OsSleepMs
libcmrt.so.1:IntelGen_OsSubmitCommandBuffer
libcmrt.so.1:IntelGen_OsUnlockResource
libcmrt.so.1:IntelGen_OsVerifyCommandBufferSize
libcmrt.so.1:IntelGen_OsWaitOnResource
libcmrt.so.1:LoadLibrary
libcmrt.so.1:OsResultToGENOS_Status
libcmrt.so.1:OsToGenTileType
libcmrt.so.1:QueryPerformanceCounter
libcmrt.so.1:QueryPerformanceFrequency
libcmrt.so.1:_GENOS_Assert
libcmrt.so.1:_Z12CmLoadKernelP10_GENHW_GSHP21_GENHW_KRN_ALLOCATIONjjP19_GENHW_KERNEL_PARAMP20_CM_HAL_KERNEL_PARAMP18tagKdll_CacheEntry
libcmrt.so.1:_Z12HalCm_CreateP17_GENOS_OS_CONTEXTP20_CM_HAL_CREATE_PARAMPP13_CM_HAL_STATE
libcmrt.so.1:_Z13GetJitterNamev
libcmrt.so.1:_Z13HalCm_DestroyP13_CM_HAL_STATE
libcmrt.so.1:_Z13HalCm_SetCapsP13_CM_HAL_STATEP26_CM_HAL_MAX_SET_CAPS_PARAM
libcmrt.so.1:_Z14HalCm_AllocateP13_CM_HAL_STATE
libcmrt.so.1:_Z15HalCm_ParseTaskP13_CM_HAL_STATEP23_CM_HAL_EXEC_TASK_PARAM
libcmrt.so.1:_Z15HalCm_QueryTaskP13_CM_HAL_STATEP24_CM_HAL_QUERY_TASK_PARAM
libcmrt.so.1:_Z16HalCm_FreeBufferP13_CM_HAL_STATEj
libcmrt.so.1:_Z16HalCm_GetGpuTimeP13_CM_HAL_STATEPm
libcmrt.so.1:_Z16HalCm_LoadKernelP13_CM_HAL_STATEP20_CM_HAL_KERNEL_PARAMPi
libcmrt.so.1:_Z16HalCm_LockBufferP13_CM_HAL_STATEP20_CM_HAL_BUFFER_PARAM
libcmrt.so.1:_Z17HalCm_ExecuteTaskP13_CM_HAL_STATEP23_CM_HAL_EXEC_TASK_PARAM
libcmrt.so.1:_Z17HalCm_TouchKernelP19_GENHW_HW_INTERFACEi
libcmrt.so.1:_Z17_CheckSurfaceTypeiz
libcmrt.so.1:_Z18HalCm_GetMaxValuesP13_CM_HAL_STATEP18_CM_HAL_MAX_VALUES
libcmrt.so.1:_Z18HalCm_UnloadKernelP19_GENHW_HW_INTERFACEi
libcmrt.so.1:_Z18HalCm_UnlockBufferP13_CM_HAL_STATEP20_CM_HAL_BUFFER_PARAM
libcmrt.so.1:_Z18HalCm_UpdateBufferP13_CM_HAL_STATEjj
libcmrt.so.1:_Z19HalCm_FreeSurface2DP13_CM_HAL_STATEj
libcmrt.so.1:_Z19HalCm_GetGlobalTimeP14_LARGE_INTEGER
libcmrt.so.1:_Z20CmDeleteOldestKernelP13_CM_HAL_STATEP18tagKdll_CacheEntry
libcmrt.so.1:_Z20CmSearchFreeSlotSizeP13_CM_HAL_STATEP18tagKdll_CacheEntry
libcmrt.so.1:_Z20HalCm_AddKernelIDTagPP20_CM_HAL_KERNEL_PARAMjjj
libcmrt.so.1:_Z20HalCm_AllocateBufferP13_CM_HAL_STATEP20_CM_HAL_BUFFER_PARAM
libcmrt.so.1:_Z20HalCm_AllocateTablesP13_CM_HAL_STATE
libcmrt.so.1:_Z20HalCm_GetBatchBufferP13_CM_HAL_STATEjPP20_CM_HAL_KERNEL_PARAMPP19_GENHW_BATCH_BUFFER
libcmrt.so.1:_Z20HalCm_GetMaxValuesExP13_CM_HAL_STATEP21_CM_HAL_MAX_VALUES_EX
libcmrt.so.1:_Z20HalCm_Lock2DResourceP13_CM_HAL_STATEP35_CM_HAL_SURFACE2D_LOCK_UNLOCK_PARAM
libcmrt.so.1:_Z20HalCm_ParseGroupTaskP13_CM_HAL_STATEP29_CM_HAL_EXEC_GROUP_TASK_PARAM
libcmrt.so.1:_Z20HalCm_ParseHintsTaskP13_CM_HAL_STATEP29_CM_HAL_EXEC_HINTS_TASK_PARAM
libcmrt.so.1:_Z20HalCm_SetPowerOptionP13_CM_HAL_STATEP26_CM_HAL_POWER_OPTION_PARAM
libcmrt.so.1:_Z21HalCm_AllocateMediaIDP19_GENHW_HW_INTERFACEiiiiiP26_GENHW_GPGPU_WALKER_PARAMS
libcmrt.so.1:_Z21HalCm_FreeSurface2DUPP13_CM_HAL_STATEj
libcmrt.so.1:_Z21HalCm_GetPlatformInfoP13_CM_HAL_STATEP30_CM_HAL_PLATFORM_SUBSLICE_INFOPj
libcmrt.so.1:_Z21HalCm_OsInitInterfaceP13_CM_HAL_STATE
libcmrt.so.1:_Z21HalCm_UpdateSurface2DP13_CM_HAL_STATEjjj
libcmrt.so.1:_Z22HalCm_ConvertToQPCTimemP14_LARGE_INTEGER
libcmrt.so.1:_Z22HalCm_ExecuteGroupTaskP13_CM_HAL_STATEP29_CM_HAL_EXEC_GROUP_TASK_PARAM
libcmrt.so.1:_Z22HalCm_ExecuteHintsTaskP13_CM_HAL_STATEP29_CM_HAL_EXEC_HINTS_TASK_PARAM
libcmrt.so.1:_Z22HalCm_GetSurfPitchSizejj13_GENOS_FORMATPjS0_
libcmrt.so.1:_Z22HalCm_Unlock2DResourceP13_CM_HAL_STATEP35_CM_HAL_SURFACE2D_LOCK_UNLOCK_PARAM
libcmrt.so.1:_Z23HalCm_AllocateSurface2DP13_CM_HAL_STATEP23_CM_HAL_SURFACE2D_PARAM
libcmrt.so.1:_Z23HalCm_GetSurfaceDetailsP13_CM_HAL_STATEP19_CM_HAL_INDEX_PARAMjR14_GENHW_SURFACEsP26_GENHW_SURFACE_STATE_ENTRYj27_GENHW_SURFACE_STATE_PARAMS23_CM_HAL_KERNEL_ARG_KIND
libcmrt.so.1:_Z23HalCm_SubmitCommands_g8P13_CM_HAL_STATEP19_GENHW_BATCH_BUFFERiPP20_CM_HAL_KERNEL_PARAMPPv
libcmrt.so.1:_Z23HalCm_SubmitCommands_g9P13_CM_HAL_STATEP19_GENHW_BATCH_BUFFERiPP20_CM_HAL_KERNEL_PARAMPPv
libcmrt.so.1:_Z24HalCm_AllocateTsResourceP13_CM_HAL_STATE
libcmrt.so.1:_Z24HalCm_SetDispatchPattern30_CM_HAL_PARALLELISM_GRAPH_INFO22_CM_DEPENDENCY_PATTERNPj
libcmrt.so.1:_Z24HalCm_SetSurfaceReadFlagP13_CM_HAL_STATEj
libcmrt.so.1:_Z24HalCm_SubmitCommands_g75P13_CM_HAL_STATEP19_GENHW_BATCH_BUFFERiPP20_CM_HAL_KERNEL_PARAMPPv
libcmrt.so.1:_Z24Halcm_PreSetBindingIndexP19_CM_HAL_INDEX_PARAMjj
libcmrt.so.1:_Z25HalCm_AllocateSurface2DUPP13_CM_HAL_STATEP26_CM_HAL_SURFACE2D_UP_PARAM
libcmrt.so.1:_Z25HalCm_GetFreeBindingIndexP13_CM_HAL_STATEP19_CM_HAL_INDEX_PARAMj
libcmrt.so.1:_Z25HalCm_GetTaskHasThreadArgPP20_CM_HAL_KERNEL_PARAMj
libcmrt.so.1:_Z25HalCm_Setup2DSurfaceStateP13_CM_HAL_STATEP24_CM_HAL_KERNEL_ARG_PARAMP19_CM_HAL_INDEX_PARAMijPh
libcmrt.so.1:_Z26HalCm_GetParallelGraphInfojjjjP30_CM_HAL_PARALLELISM_GRAPH_INFO22_CM_DEPENDENCY_PATTERN
libcmrt.so.1:_Z26HalCm_GetSurf2DUPBaseWidthjj13_GENOS_FORMAT
libcmrt.so.1:_Z26HalCm_OsResource_ReferenceP21_GENOS_RESOURCE_LINUX
libcmrt.so.1:_Z26HalCm_SendGpGpuWalkerStateP13_CM_HAL_STATEP20_CM_HAL_KERNEL_PARAMP21_GENOS_COMMAND_BUFFER
libcmrt.so.1:_Z26HalCm_SendMediaWalkerStateP13_CM_HAL_STATEP20_CM_HAL_KERNEL_PARAMP21_GENOS_COMMAND_BUFFER
libcmrt.so.1:_Z27HalCm_FinishStatesForKernelP13_CM_HAL_STATEP19_GENHW_BATCH_BUFFERiP20_CM_HAL_KERNEL_PARAMiP19_CM_HAL_INDEX_PARAMiii
libcmrt.so.1:_Z27HalCm_GetNumKernelsPerGrouphjPjS_S_S_
libcmrt.so.1:_Z27HalCm_GetSurfaceAndRegisterP13_CM_HAL_STATEP14_GENHW_SURFACE23_CM_HAL_KERNEL_ARG_KINDj
libcmrt.so.1:_Z27HalCm_Setup2DSurfaceUPStateP13_CM_HAL_STATEP24_CM_HAL_KERNEL_ARG_PARAMP19_CM_HAL_INDEX_PARAMijPh
libcmrt.so.1:_Z28HalCm_GetGPUCurrentFrequencyP13_CM_HAL_STATEPj
libcmrt.so.1:_Z28HalCm_GetSurface2DTileYPitchP13_CM_HAL_STATEP23_CM_HAL_SURFACE2D_PARAM
libcmrt.so.1:_Z28HalCm_HwSendL3CacheConfig_g8P13_CM_HAL_STATEP21_GENOS_COMMAND_BUFFERP22_GENHW_L3_CACHE_CONFIG
libcmrt.so.1:_Z28HalCm_OsResource_UnreferenceP21_GENOS_RESOURCE_LINUX
libcmrt.so.1:_Z29CmAddCurrentKerenelToFreeSlotP13_CM_HAL_STATEiP19_GENHW_KERNEL_PARAMP20_CM_HAL_KERNEL_PARAMP18tagKdll_CacheEntry
libcmrt.so.1:_Z29HalCm_AddMediaStateFlushBb_g8P19_GENHW_HW_INTERFACEP19_GENHW_BATCH_BUFFERP26_MEDIA_STATE_FLUSH_CMD_G75
libcmrt.so.1:_Z29HalCm_GetTaskSyncLocation_g75i
libcmrt.so.1:_Z29HalCm_HwSendL3CacheConfig_g75P13_CM_HAL_STATEP21_GENOS_COMMAND_BUFFERP22_GENHW_L3_CACHE_CONFIG
libcmrt.so.1:_Z29HalCm_SetupBufferSurfaceStateP13_CM_HAL_STATEP24_CM_HAL_KERNEL_ARG_PARAMP19_CM_HAL_INDEX_PARAMisjPh
libcmrt.so.1:_Z30HalCm_AddMediaStateFlushBb_g75P19_GENHW_HW_INTERFACEP19_GENHW_BATCH_BUFFER
libcmrt.so.1:_Z30HalCm_FinishStatesForKernelMixP13_CM_HAL_STATEP19_GENHW_BATCH_BUFFERiPP20_CM_HAL_KERNEL_PARAMP19_CM_HAL_INDEX_PARAMPiS8_S8_jjj
libcmrt.so.1:_Z30HalCm_GetSurface2DPitchAndSizeP13_CM_HAL_STATEP26_CM_HAL_SURFACE2D_UP_PARAM
libcmrt.so.1:_Z30HalCm_SetKernelGrpFreqDispatchP30_CM_HAL_PARALLELISM_GRAPH_INFOP25_CM_HAL_KERNEL_GROUP_INFOjPj
libcmrt.so.1:_Z30HalCm_Setup2DSurfaceStateBasicP13_CM_HAL_STATEP24_CM_HAL_KERNEL_ARG_PARAMP19_CM_HAL_INDEX_PARAMijPhj
libcmrt.so.1:_Z30HalCm_SkipMediaStateFlushBb_g8P19_GENHW_HW_INTERFACEP19_GENHW_BATCH_BUFFER
libcmrt.so.1:_Z31HalCm_GetCurbeBlockAlignSize_g8v
libcmrt.so.1:_Z32HalCm_GetCurbeBlockAlignSize_g75v
libcmrt.so.1:_Z32HalCm_Setup2DSurfaceUPStateBasicP13_CM_HAL_STATEP24_CM_HAL_KERNEL_ARG_PARAMP19_CM_HAL_INDEX_PARAMijPh
libcmrt.so.1:_Z33HalCm_Set2DSurfaceStateDimensionsP13_CM_HAL_STATEP48_CM_HAL_SURFACE2D_SURFACE_STATE_DIMENSIONS_PARAM
libcmrt.so.1:_Z33HalCm_SetupStatesForKernelInitialP13_CM_HAL_STATEP19_GENHW_BATCH_BUFFERiP20_CM_HAL_KERNEL_PARAMP19_CM_HAL_INDEX_PARAMjRiS7_S7_
libcmrt.so.1:_Z36HalCm_Setup2DSurfaceStateWithBTIndexP13_CM_HAL_STATEijj
libcmrt.so.1:_Z38HalCm_GetPerThreadScratchSpaceSize_g75v
libcmrt.so.1:_Z38HalCm_SetNoDependKernelDispatchPatternjjPj
libcmrt.so.1:_Z38HalCm_Setup2DSurfaceUPStateWithBTIndexP13_CM_HAL_STATEijj
libcmrt.so.1:_Z40HalCm_HwSetSurfaceMemoryObjectControl_g8P13_CM_HAL_STATEtP27_GENHW_SURFACE_STATE_PARAMS
libcmrt.so.1:_Z40HalCm_HwSetSurfaceMemoryObjectControl_g9P13_CM_HAL_STATEtP27_GENHW_SURFACE_STATE_PARAMS
libcmrt.so.1:_Z40HalCm_SetupBufferSurfaceStateWithBTIndexP13_CM_HAL_STATEijj
libcmrt.so.1:_Z41HalCm_HwSetSurfaceMemoryObjectControl_g75P13_CM_HAL_STATEtP27_GENHW_SURFACE_STATE_PARAMS
libcmrt.so.1:_Z48HalCm_GetUserDefinedThreadCountPerThreadGroup_g8P13_CM_HAL_STATEPj
libcmrt.so.1:_Z48HalCm_GetUserDefinedThreadCountPerThreadGroup_g9P13_CM_HAL_STATEPj
libcmrt.so.1:_Z49HalCm_GetUserDefinedThreadCountPerThreadGroup_g75P13_CM_HAL_STATEPj
libcmrt.so.1:_Z7bIsFreeP21_GENHW_KRN_ALLOCATION
libcmrt.so.1:_Z9PartitionPP7_CM_ARGii
libcmrt.so.1:_Z9QuickSortPP7_CM_ARGii
libcmrt.so.1:_ZN10CmEvent_RT10InitializeEv
libcmrt.so.1:_ZN10CmEvent_RT11SafeReleaseEv
libcmrt.so.1:_ZN10CmEvent_RT12GetHWEndTimeER14_LARGE_INTEGER
libcmrt.so.1:_ZN10CmEvent_RT13GetKernelNameEjRPc
libcmrt.so.1:_ZN10CmEvent_RT13GetSubmitTimeER14_LARGE_INTEGER
libcmrt.so.1:_ZN10CmEvent_RT13SetTaskOsDataEPv
libcmrt.so.1:_ZN10CmEvent_RT14GetHWStartTimeER14_LARGE_INTEGER
libcmrt.so.1:_ZN10CmEvent_RT14GetKernelCountEv
libcmrt.so.1:_ZN10CmEvent_RT14SetKernelNamesEP6CmTaskP13CmThreadSpaceP18CmThreadGroupSpace
libcmrt.so.1:_ZN10CmEvent_RT15GetCompleteTimeER14_LARGE_INTEGER
libcmrt.so.1:_ZN10CmEvent_RT15GetTaskDriverIdERi
libcmrt.so.1:_ZN10CmEvent_RT15SetTaskDriverIdEi
libcmrt.so.1:_ZN10CmEvent_RT16GetExecutionTimeERm
libcmrt.so.1:_ZN10CmEvent_RT19WaitForTaskFinishedEj
libcmrt.so.1:_ZN10CmEvent_RT20GetKernelThreadSpaceEjRjS0_S0_S0_
libcmrt.so.1:_ZN10CmEvent_RT5QueryEv
libcmrt.so.1:_ZN10CmEvent_RT6CreateEjP14CmTaskInternaliP11CmDevice_RTjRPS_
libcmrt.so.1:_ZN10CmEvent_RT7AcquireEv
libcmrt.so.1:_ZN10CmEvent_RT7DestroyERPS_
libcmrt.so.1:_ZN10CmEvent_RT8GetIndexERj
libcmrt.so.1:_ZN10CmEvent_RT9GetStatusER10_CM_STATUS
libcmrt.so.1:_ZN10CmEvent_RTC1EjP14CmTaskInternaliP11CmDevice_RTj
libcmrt.so.1:_ZN10CmEvent_RTC2EjP14CmTaskInternaliP11CmDevice_RTj
libcmrt.so.1:_ZN10CmEvent_RTD0Ev
libcmrt.so.1:_ZN10CmEvent_RTD1Ev
libcmrt.so.1:_ZN10CmEvent_RTD2Ev
libcmrt.so.1:_ZN10CmQueue_RT10CleanQueueEv
libcmrt.so.1:_ZN10CmQueue_RT10Enqueue_RTEPP11CmKernel_RTRP7CmEventjjjP26_CM_HAL_POWER_OPTION_PARAM
libcmrt.so.1:_ZN10CmQueue_RT10Enqueue_RTEPP11CmKernel_RTjjRP7CmEventPK13CmThreadSpacemP26_CM_HAL_POWER_OPTION_PARAM
libcmrt.so.1:_ZN10CmQueue_RT10Enqueue_RTEPP11CmKernel_RTjjRP7CmEventPK18CmThreadGroupSpacem22CM_HAL_PREEMPTION_MODE
libcmrt.so.1:_ZN10CmQueue_RT10InitializeEv
libcmrt.so.1:_ZN10CmQueue_RT11CreateEventEP14CmTaskInternaljRiRP7CmEvent
libcmrt.so.1:_ZN10CmQueue_RT12DestroyEventERP7CmEvent
libcmrt.so.1:_ZN10CmQueue_RT12GetTaskCountERj
libcmrt.so.1:_ZN10CmQueue_RT14FlushGroupTaskEP14CmTaskInternal
libcmrt.so.1:_ZN10CmQueue_RT16AcquireQueueLockEv
libcmrt.so.1:_ZN10CmQueue_RT16EnqueueWithGroupEP6CmTaskRP7CmEventPK18CmThreadGroupSpace
libcmrt.so.1:_ZN10CmQueue_RT16EnqueueWithHintsEP6CmTaskRP7CmEventj
libcmrt.so.1:_ZN10CmQueue_RT16FlushGeneralTaskEP14CmTaskInternal
libcmrt.so.1:_ZN10CmQueue_RT16ReleaseQueueLockEv
libcmrt.so.1:_ZN10CmQueue_RT17QueryFlushedTasksEv
libcmrt.so.1:_ZN10CmQueue_RT17TouchFlushedTasksEv
libcmrt.so.1:_ZN10CmQueue_RT19GetTaskHasThreadArgEPP8CmKerneljRj
libcmrt.so.1:_ZN10CmQueue_RT20FlushTaskWithoutSyncEb
libcmrt.so.1:_ZN10CmQueue_RT23PopTaskFromFlushedQueueEv
libcmrt.so.1:_ZN10CmQueue_RT23UpdateSurfaceStateOnPopEP14CmTaskInternal
libcmrt.so.1:_ZN10CmQueue_RT24UpdateSurfaceStateOnPushEP14CmTaskInternal
libcmrt.so.1:_ZN10CmQueue_RT25FlushEnqueueWithHintsTaskEP14CmTaskInternal
libcmrt.so.1:_ZN10CmQueue_RT6CreateEP11CmDevice_RTRPS_
libcmrt.so.1:_ZN10CmQueue_RT7DestroyERPS_
libcmrt.so.1:_ZN10CmQueue_RT7EnqueueEP6CmTaskRP7CmEventPK13CmThreadSpace
libcmrt.so.1:_ZN10CmQueue_RTC1EP11CmDevice_RT
libcmrt.so.1:_ZN10CmQueue_RTC2EP11CmDevice_RT
libcmrt.so.1:_ZN10CmQueue_RTD0Ev
libcmrt.so.1:_ZN10CmQueue_RTD1Ev
libcmrt.so.1:_ZN10CmQueue_RTD2Ev
libcmrt.so.1:_ZN11CLinkedList10CreateNodeERPv
libcmrt.so.1:_ZN11CLinkedList10DeleteNodeERPNS_5CNodeE
libcmrt.so.1:_ZN11CLinkedList14DeleteFreePoolEv
libcmrt.so.1:_ZN11CLinkedList3AddERKNS_9CIteratorERPv
libcmrt.so.1:_ZN11CLinkedList3AddERPv
libcmrt.so.1:_ZN11CLinkedList3EndEv
libcmrt.so.1:_ZN11CLinkedList3GetEj
libcmrt.so.1:_ZN11CLinkedList3SetERNS_9CIteratorERPv
libcmrt.so.1:_ZN11CLinkedList4FindERPv
libcmrt.so.1:_ZN11CLinkedList5BeginEv
libcmrt.so.1:_ZN11CLinkedList5CNode10GetElementEv
libcmrt.so.1:_ZN11CLinkedList5CNode10SetElementERPv
libcmrt.so.1:_ZN11CLinkedList5CNode11GetPreviousEv
libcmrt.so.1:_ZN11CLinkedList5CNode11SetPreviousEPS0_
libcmrt.so.1:_ZN11CLinkedList5CNode6InsertEPS0_
libcmrt.so.1:_ZN11CLinkedList5CNode6RemoveEv
libcmrt.so.1:_ZN11CLinkedList5CNode7GetNextEv
libcmrt.so.1:_ZN11CLinkedList5CNode7SetNextEPS0_
libcmrt.so.1:_ZN11CLinkedList5CNodeC1ERPv
libcmrt.so.1:_ZN11CLinkedList5CNodeC1Ev
libcmrt.so.1:_ZN11CLinkedList5CNodeC2ERPv
libcmrt.so.1:_ZN11CLinkedList5CNodeC2Ev
libcmrt.so.1:_ZN11CLinkedList5CNodeD0Ev
libcmrt.so.1:_ZN11CLinkedList5CNodeD1Ev
libcmrt.so.1:_ZN11CLinkedList5CNodeD2Ev
libcmrt.so.1:_ZN11CLinkedList5ClearEv
libcmrt.so.1:_ZN11CLinkedList6RemoveERKNS_9CIteratorE
libcmrt.so.1:_ZN11CLinkedList6RemoveERPNS_5CNodeE
libcmrt.so.1:_ZN11CLinkedList6RemoveERPv
libcmrt.so.1:_ZN11CLinkedList6SpliceERNS_9CIteratorES1_RS_
libcmrt.so.1:_ZN11CLinkedList7IsEmptyEv
libcmrt.so.1:_ZN11CLinkedList8GetCountEv
libcmrt.so.1:_ZN11CLinkedList9CIterator6IsNullEv
libcmrt.so.1:_ZN11CLinkedList9CIterator7SetNullEv
libcmrt.so.1:_ZN11CLinkedList9CIteratorC1EPNS_5CNodeE
libcmrt.so.1:_ZN11CLinkedList9CIteratorC1ERKS0_
libcmrt.so.1:_ZN11CLinkedList9CIteratorC1Ev
libcmrt.so.1:_ZN11CLinkedList9CIteratorC2EPNS_5CNodeE
libcmrt.so.1:_ZN11CLinkedList9CIteratorC2ERKS0_
libcmrt.so.1:_ZN11CLinkedList9CIteratorC2Ev
libcmrt.so.1:_ZN11CLinkedList9CIteratoraSERKS0_
libcmrt.so.1:_ZN11CLinkedList9CIteratordeEv
libcmrt.so.1:_ZN11CLinkedList9CIteratoreqERKS0_
libcmrt.so.1:_ZN11CLinkedList9CIteratormmEv
libcmrt.so.1:_ZN11CLinkedList9CIteratorneERKS0_
libcmrt.so.1:_ZN11CLinkedList9CIteratorppEv
libcmrt.so.1:_ZN11CLinkedListC1Ev
libcmrt.so.1:_ZN11CLinkedListC2Ev
libcmrt.so.1:_ZN11CLinkedListD0Ev
libcmrt.so.1:_ZN11CLinkedListD1Ev
libcmrt.so.1:_ZN11CLinkedListD2Ev
libcmrt.so.1:_ZN11CLinkedListaSERS_
libcmrt.so.1:_ZN11CmBuffer_RT10GetAddressERPv
libcmrt.so.1:_ZN11CmBuffer_RT10InitializeEj
libcmrt.so.1:_ZN11CmBuffer_RT11InitSurfaceEjP7CmEvent
libcmrt.so.1:_ZN11CmBuffer_RT11IsUpSurfaceEv
libcmrt.so.1:_ZN11CmBuffer_RT11ReadSurfaceEPhP7CmEventm
libcmrt.so.1:_ZN11CmBuffer_RT12WriteSurfaceEPKhP7CmEventm
libcmrt.so.1:_ZN11CmBuffer_RT22SetMemoryObjectControlE22_MEMORY_OBJECT_CONTROL12_MEMORY_TYPEj
libcmrt.so.1:_ZN11CmBuffer_RT6CreateEjjjjP16CmSurfaceManagerjPvRPS_
libcmrt.so.1:_ZN11CmBuffer_RT7GetSizeERj
libcmrt.so.1:_ZN11CmBuffer_RT7SetSizeEj
libcmrt.so.1:_ZN11CmBuffer_RT8GetIndexERP12SurfaceIndex
libcmrt.so.1:_ZN11CmBuffer_RT9GetHandleERj
libcmrt.so.1:_ZN11CmBuffer_RTC1EjjjP16CmSurfaceManagerjPv
libcmrt.so.1:_ZN11CmBuffer_RTC2EjjjP16CmSurfaceManagerjPv
libcmrt.so.1:_ZN11CmBuffer_RTD0Ev
libcmrt.so.1:_ZN11CmBuffer_RTD1Ev
libcmrt.so.1:_ZN11CmBuffer_RTD2Ev
libcmrt.so.1:_ZN11CmDevice_RT10CreateTaskERP6CmTask
libcmrt.so.1:_ZN11CmDevice_RT10InitializeEP17_CmDriverContext_
libcmrt.so.1:_ZN11CmDevice_RT10LoadJITDllEv
libcmrt.so.1:_ZN11CmDevice_RT11CreateQueueERP7CmQueue
libcmrt.so.1:_ZN11CmDevice_RT11DestroyTaskERP6CmTask
libcmrt.so.1:_ZN11CmDevice_RT11LoadProgramEPvjRP9CmProgramPKc
libcmrt.so.1:_ZN11CmDevice_RT12CreateBufferEP14_CmOsResource_RP8CmBuffer
libcmrt.so.1:_ZN11CmDevice_RT12CreateBufferEjRP8CmBuffer
libcmrt.so.1:_ZN11CmDevice_RT12CreateKernelEP9CmProgramPKcRP8CmKernelS3_
libcmrt.so.1:_ZN11CmDevice_RT12DestroyQueueERP10CmQueue_RT
libcmrt.so.1:_ZN11CmDevice_RT13DestroyKernelERP8CmKernel
libcmrt.so.1:_ZN11CmDevice_RT13GetDDIVersionERj
libcmrt.so.1:_ZN11CmDevice_RT14CreateBufferUPEjPvRP10CmBufferUP
libcmrt.so.1:_ZN11CmDevice_RT14DestroyProgramERP9CmProgram
libcmrt.so.1:_ZN11CmDevice_RT14DestroySurfaceERP11CmSurface2D
libcmrt.so.1:_ZN11CmDevice_RT14DestroySurfaceERP11CmSurface2Dii21_SURFACE_DESTROY_KIND
libcmrt.so.1:_ZN11CmDevice_RT14DestroySurfaceERP13CmSurface2DUP
libcmrt.so.1:_ZN11CmDevice_RT14DestroySurfaceERP13CmSurface2DUPii21_SURFACE_DESTROY_KIND
libcmrt.so.1:_ZN11CmDevice_RT14DestroySurfaceERP8CmBuffer
libcmrt.so.1:_ZN11CmDevice_RT14DestroySurfaceERP8CmBufferii21_SURFACE_DESTROY_KIND
libcmrt.so.1:_ZN11CmDevice_RT14GetGenPlatformERj
libcmrt.so.1:_ZN11CmDevice_RT14GetGenStepInfoEjRPc
libcmrt.so.1:_ZN11CmDevice_RT14GetSurfaceLockEv
libcmrt.so.1:_ZN11CmDevice_RT15CreateAuxDeviceEP17_CmDriverContext_
libcmrt.so.1:_ZN11CmDevice_RT15CreateSurface2DEP14_CmOsResource_RP11CmSurface2D
libcmrt.so.1:_ZN11CmDevice_RT15CreateSurface2DEjj13_VA_CM_FORMATRP11CmSurface2D
libcmrt.so.1:_ZN11CmDevice_RT15DestroyBufferUPERP10CmBufferUP
libcmrt.so.1:_ZN11CmDevice_RT15DestroyBufferUPERP10CmBufferUPii21_SURFACE_DESTROY_KIND
libcmrt.so.1:_ZN11CmDevice_RT15GetCapsInternalEPvPj
libcmrt.so.1:_ZN11CmDevice_RT15GetFreeBlockFntERPFvPvE
libcmrt.so.1:_ZN11CmDevice_RT15GetHalMaxValuesERP18_CM_HAL_MAX_VALUESRP21_CM_HAL_MAX_VALUES_EX
libcmrt.so.1:_ZN11CmDevice_RT15GetRTDllVersionEP20_CM_DLL_FILE_VERSION
libcmrt.so.1:_ZN11CmDevice_RT15SetCapsInternalE19_CM_DEVICE_CAP_NAMEmPv
libcmrt.so.1:_ZN11CmDevice_RT16DestroyAuxDeviceEv
libcmrt.so.1:_ZN11CmDevice_RT16GetJITCompileFntERPFiPKcPKvjRPvRjS1_iiiPS1_PcP12_CM_JIT_INFOE
libcmrt.so.1:_ZN11CmDevice_RT16GetJITVersionFntERPFvRjS0_E
libcmrt.so.1:_ZN11CmDevice_RT16GetSurface2DInfoEjj13_VA_CM_FORMATRjS1_
libcmrt.so.1:_ZN11CmDevice_RT17CreateSurface2DUPEjj13_VA_CM_FORMATPvRP13CmSurface2DUP
libcmrt.so.1:_ZN11CmDevice_RT17CreateThreadSpaceEjjRP13CmThreadSpace
libcmrt.so.1:_ZN11CmDevice_RT17GetSurfaceManagerERP16CmSurfaceManager
libcmrt.so.1:_ZN11CmDevice_RT18DestroyThreadSpaceERP13CmThreadSpace
libcmrt.so.1:_ZN11CmDevice_RT18GetSurface2DInPoolEjj13_VA_CM_FORMATRP11CmSurface2D
libcmrt.so.1:_ZN11CmDevice_RT18GetSurfaceIDInPoolEi
libcmrt.so.1:_ZN11CmDevice_RT19GetMaxValueFromCapsER18_CM_HAL_MAX_VALUESR21_CM_HAL_MAX_VALUES_EX
libcmrt.so.1:_ZN11CmDevice_RT19InitDevCreateOptionER20_CM_HAL_CREATE_PARAMj
libcmrt.so.1:_ZN11CmDevice_RT19IsValidSurfaceIndexEj
libcmrt.so.1:_ZN11CmDevice_RT20CreateQueue_InternelEv
libcmrt.so.1:_ZN11CmDevice_RT20DestroySurfaceInPoolERj
libcmrt.so.1:_ZN11CmDevice_RT20ForceDestroyBufferUPERP10CmBufferUP
libcmrt.so.1:_ZN11CmDevice_RT20GetProgramKernelLockEv
libcmrt.so.1:_ZN11CmDevice_RT20GetSurf2DLookUpEntryEjRP18cm_tagLOOKUP_ENTRY
libcmrt.so.1:_ZN11CmDevice_RT20SetSuggestedL3ConfigE18_L3_SUGGEST_CONFIG
libcmrt.so.1:_ZN11CmDevice_RT21IsSurfaceReuseEnabledEv
libcmrt.so.1:_ZN11CmDevice_RT22CreateThreadGroupSpaceEjjjjRP18CmThreadGroupSpace
libcmrt.so.1:_ZN11CmDevice_RT22GetSurfaceCreationLockEv
libcmrt.so.1:_ZN11CmDevice_RT22IsScratchSpaceDisabledEv
libcmrt.so.1:_ZN11CmDevice_RT22LoadProgramWithGenCodeEPvjS0_jRP12CmProgram_RTPKc
libcmrt.so.1:_ZN11CmDevice_RT22ValidSurfaceIndexStartEv
libcmrt.so.1:_ZN11CmDevice_RT23DestroyThreadGroupSpaceERP18CmThreadGroupSpace
libcmrt.so.1:_ZN11CmDevice_RT23MaxIndirectSurfaceCountEv
libcmrt.so.1:_ZN11CmDevice_RT24IsCmReservedSurfaceIndexEj
libcmrt.so.1:_ZN11CmDevice_RT6CreateEP17_CmDriverContext_RPS_j
libcmrt.so.1:_ZN11CmDevice_RT7AcquireEv
libcmrt.so.1:_ZN11CmDevice_RT7DestroyERPS_
libcmrt.so.1:_ZN11CmDevice_RT7GetCapsE19_CM_DEVICE_CAP_NAMERmPv
libcmrt.so.1:_ZN11CmDevice_RT7ReleaseEv
libcmrt.so.1:_ZN11CmDevice_RT8GetQueueERP10CmQueue_RT
libcmrt.so.1:_ZN11CmDevice_RTC1Ej
libcmrt.so.1:_ZN11CmDevice_RTC2Ej
libcmrt.so.1:_ZN11CmDevice_RTD0Ev
libcmrt.so.1:_ZN11CmDevice_RTD1Ev
libcmrt.so.1:_ZN11CmDevice_RTD2Ev
libcmrt.so.1:_ZN11CmKernel_RT10GetArgKindEjRt
libcmrt.so.1:_ZN11CmKernel_RT10GetSLMSizeEv
libcmrt.so.1:_ZN11CmKernel_RT10InitializeEPKcS1_
libcmrt.so.1:_ZN11CmKernel_RT11DestroyArgsEv
libcmrt.so.1:_ZN11CmKernel_RT11GetArgCountERj
libcmrt.so.1:_ZN11CmKernel_RT11GetCmDeviceERP11CmDevice_RT
libcmrt.so.1:_ZN11CmKernel_RT11SafeReleaseEv
libcmrt.so.1:_ZN11CmKernel_RT12GetCmProgramERP12CmProgram_RT
libcmrt.so.1:_ZN11CmKernel_RT12SetKernelArgEjmPKv
libcmrt.so.1:_ZN11CmKernel_RT12SetThreadArgEjjmPKv
libcmrt.so.1:_ZN11CmKernel_RT13SetSurfaceBTIEP12SurfaceIndexj
libcmrt.so.1:_ZN11CmKernel_RT14CreateTempArgsEjRP7_CM_ARG
libcmrt.so.1:_ZN11CmKernel_RT14GetCurbeEnableERj
libcmrt.so.1:_ZN11CmKernel_RT14GetIndexInTaskEv
libcmrt.so.1:_ZN11CmKernel_RT14GetKernelIndexEv
libcmrt.so.1:_ZN11CmKernel_RT14GetSizeInCurbeERj
libcmrt.so.1:_ZN11CmKernel_RT14GetThreadCountERj
libcmrt.so.1:_ZN11CmKernel_RT14SetCurbeEnableEj
libcmrt.so.1:_ZN11CmKernel_RT14SetIndexInTaskEj
libcmrt.so.1:_ZN11CmKernel_RT14SetThreadCountEj
libcmrt.so.1:_ZN11CmKernel_RT15IsPrologueDirtyEv
libcmrt.so.1:_ZN11CmKernel_RT15SetArgsInternalE28_CM_KERNEL_INTERNAL_ARG_TYPEjmPKvj
libcmrt.so.1:_ZN11CmKernel_RT15SetStaticBufferEjPKv
libcmrt.so.1:_ZN11CmKernel_RT15SortThreadSpaceEP13CmThreadSpace
libcmrt.so.1:_ZN11CmKernel_RT16CreateKernelDataERP12CmKernelDataRjPK13CmThreadSpace
libcmrt.so.1:_ZN11CmKernel_RT16CreateKernelDataERP12CmKernelDataRjPK18CmThreadGroupSpace
libcmrt.so.1:_ZN11CmKernel_RT16GetSizeInPayloadERj
libcmrt.so.1:_ZN11CmKernel_RT16UpdateKernelDataEP12CmKernelDataPK13CmThreadSpace
libcmrt.so.1:_ZN11CmKernel_RT16UpdateKernelDataEP12CmKernelDataPK18CmThreadGroupSpace
libcmrt.so.1:_ZN11CmKernel_RT17CleanArgDirtyFlagEv
libcmrt.so.1:_ZN11CmKernel_RT17GetKernelSurfacesERPj
libcmrt.so.1:_ZN11CmKernel_RT17SurfTypeToArgKindE19_CM_ENUM_CLASS_TYPE
libcmrt.so.1:_ZN11CmKernel_RT18CalcKernelDataSizeEjjjRj
libcmrt.so.1:_ZN11CmKernel_RT18IsThreadArgExistedEv
libcmrt.so.1:_ZN11CmKernel_RT19CreateThreadArgDataEP24_CM_HAL_KERNEL_ARG_PARAMjP13CmThreadSpacejP7_CM_ARG
libcmrt.so.1:_ZN11CmKernel_RT19GetAlignedCurbeSizeEj
libcmrt.so.1:_ZN11CmKernel_RT19ResetKernelSurfacesEv
libcmrt.so.1:_ZN11CmKernel_RT20AssociateThreadSpaceERP13CmThreadSpace
libcmrt.so.1:_ZN11CmKernel_RT20CollectKernelSurfaceEv
libcmrt.so.1:_ZN11CmKernel_RT20IsKernelDataReusableEP13CmThreadSpace
libcmrt.so.1:_ZN11CmKernel_RT20SetKernelPayloadDataEmPKv
libcmrt.so.1:_ZN11CmKernel_RT20UpdateLastKernelDataERP12CmKernelData
libcmrt.so.1:_ZN11CmKernel_RT21CreateMovInstructionsERjRPhP7_CM_ARGj
libcmrt.so.1:_ZN11CmKernel_RT21IsBatchBufferReusableEP13CmThreadSpace
libcmrt.so.1:_ZN11CmKernel_RT21SetAssociatedToTSFlagEj
libcmrt.so.1:_ZN11CmKernel_RT22CreateThreadSpaceParamEP32_CM_HAL_KERNEL_THREADSPACE_PARAMP13CmThreadSpace
libcmrt.so.1:_ZN11CmKernel_RT23GetKernelGenxBinarySizeEv
libcmrt.so.1:_ZN11CmKernel_RT23SetKernelPayloadSurfaceEjPP12SurfaceIndex
libcmrt.so.1:_ZN11CmKernel_RT23SetThreadDependencyMaskEjh
libcmrt.so.1:_ZN11CmKernel_RT24CreateKernelArgDataGroupERPhj
libcmrt.so.1:_ZN11CmKernel_RT24CreateKernelDataInternalERP12CmKernelDataRjPK13CmThreadSpace
libcmrt.so.1:_ZN11CmKernel_RT24CreateKernelDataInternalERP12CmKernelDataRjPK18CmThreadGroupSpace
libcmrt.so.1:_ZN11CmKernel_RT24CreateKernelIndirectDataEP27_CM_HAL_INDIRECT_DATA_PARAM
libcmrt.so.1:_ZN11CmKernel_RT24GetArgCountPlusSurfArrayERjS0_
libcmrt.so.1:_ZN11CmKernel_RT25AssociateThreadGroupSpaceERP18CmThreadGroupSpace
libcmrt.so.1:_ZN11CmKernel_RT26CalculateKernelSurfacesNumERjS0_
libcmrt.so.1:_ZN11CmKernel_RT33UpdateKernelDataGlobalSurfaceInfoEP20_CM_HAL_KERNEL_PARAM
libcmrt.so.1:_ZN11CmKernel_RT5ResetEv
libcmrt.so.1:_ZN11CmKernel_RT6CreateEP11CmDevice_RTP12CmProgram_RTPKcjjRPS_S5_
libcmrt.so.1:_ZN11CmKernel_RT7AcquireEv
libcmrt.so.1:_ZN11CmKernel_RT7DestroyERPS_RP12CmProgram_RT
libcmrt.so.1:_ZN11CmKernel_RT7GetArgsERP7_CM_ARG
libcmrt.so.1:_ZN11CmKernel_RT9GetBinaryERPvRj
libcmrt.so.1:_ZN11CmKernel_RTC1EP11CmDevice_RTP12CmProgram_RTjj
libcmrt.so.1:_ZN11CmKernel_RTC2EP11CmDevice_RTP12CmProgram_RTjj
libcmrt.so.1:_ZN11CmKernel_RTD0Ev
libcmrt.so.1:_ZN11CmKernel_RTD1Ev
libcmrt.so.1:_ZN11CmKernel_RTD2Ev
libcmrt.so.1:_ZN12CmKernelData10InitializeEv
libcmrt.so.1:_ZN12CmKernelData11GetCmKernelERP8CmKernel
libcmrt.so.1:_ZN12CmKernelData11SafeReleaseEv
libcmrt.so.1:_ZN12CmKernelData13AcquireKernelEv
libcmrt.so.1:_ZN12CmKernelData13ReleaseKernelEv
libcmrt.so.1:_ZN12CmKernelData17GetKernelDataSizeEv
libcmrt.so.1:_ZN12CmKernelData17SetKernelDataSizeEi
libcmrt.so.1:_ZN12CmKernelData18GetHalCmKernelDataEv
libcmrt.so.1:_ZN12CmKernelData18GetKernelCurbeSizeEv
libcmrt.so.1:_ZN12CmKernelData6CreateEP8CmKernelRPS_
libcmrt.so.1:_ZN12CmKernelData7AcquireEv
libcmrt.so.1:_ZN12CmKernelData7DestroyERPS_
libcmrt.so.1:_ZN12CmKernelData7IsInUseEv
libcmrt.so.1:_ZN12CmKernelDataC1EP8CmKernel
libcmrt.so.1:_ZN12CmKernelDataC2EP8CmKernel
libcmrt.so.1:_ZN12CmKernelDataD1Ev
libcmrt.so.1:_ZN12CmKernelDataD2Ev
libcmrt.so.1:_ZN12CmProgram_RT10InitializeEPvjS0_jPKc
libcmrt.so.1:_ZN12CmProgram_RT11SafeReleaseEv
libcmrt.so.1:_ZN12CmProgram_RT13GetKernelInfoEjRP15_CM_KERNEL_INFO
libcmrt.so.1:_ZN12CmProgram_RT14GetCISAVersionERjS0_
libcmrt.so.1:_ZN12CmProgram_RT14GetIsaFileNameERPc
libcmrt.so.1:_ZN12CmProgram_RT14GetKernelCountERj
libcmrt.so.1:_ZN12CmProgram_RT15GetProgramIndexEv
libcmrt.so.1:_ZN12CmProgram_RT15GetSurfaceCountEv
libcmrt.so.1:_ZN12CmProgram_RT15SetSurfaceCountEj
libcmrt.so.1:_ZN12CmProgram_RT16GetCommonISACodeERPvRj
libcmrt.so.1:_ZN12CmProgram_RT16GetKernelOptionsERPc
libcmrt.so.1:_ZN12CmProgram_RT17AcquireKernelInfoEj
libcmrt.so.1:_ZN12CmProgram_RT17ReleaseKernelInfoEj
libcmrt.so.1:_ZN12CmProgram_RT21GetKernelInfoRefCountEjRj
libcmrt.so.1:_ZN12CmProgram_RT6CreateEP11CmDevice_RTPvjS2_jRPS_PKcj
libcmrt.so.1:_ZN12CmProgram_RT7AcquireEv
libcmrt.so.1:_ZN12CmProgram_RT7DestroyERPS_
libcmrt.so.1:_ZN12CmProgram_RTC1EP11CmDevice_RTj
libcmrt.so.1:_ZN12CmProgram_RTC2EP11CmDevice_RTj
libcmrt.so.1:_ZN12CmProgram_RTD0Ev
libcmrt.so.1:_ZN12CmProgram_RTD1Ev
libcmrt.so.1:_ZN12CmProgram_RTD2Ev
libcmrt.so.1:_ZN13CmThreadSpace10InitializeEv
libcmrt.so.1:_ZN13CmThreadSpace13GetBoardOrderERPj
libcmrt.so.1:_ZN13CmThreadSpace13GetDependencyERP14_CM_DEPENDENCY
libcmrt.so.1:_ZN13CmThreadSpace14IntegrityCheckEP9CmTask_RT
libcmrt.so.1:_ZN13CmThreadSpace15AssociateThreadEjjP8CmKerneljh
libcmrt.so.1:_ZN13CmThreadSpace15IsDependencySetEv
libcmrt.so.1:_ZN13CmThreadSpace16VerticalSequenceEv
libcmrt.so.1:_ZN13CmThreadSpace17GetIndexInTsArrayEv
libcmrt.so.1:_ZN13CmThreadSpace17GetWalkingPatternER23_CM_HAL_WALKING_PATTERN
libcmrt.so.1:_ZN13CmThreadSpace18GetThreadSpaceSizeERjS0_
libcmrt.so.1:_ZN13CmThreadSpace18GetThreadSpaceUnitERP21_CM_THREAD_SPACE_UNIT
libcmrt.so.1:_ZN13CmThreadSpace18HorizentalSequenceEv
libcmrt.so.1:_ZN13CmThreadSpace19Wavefront26SequenceEv
libcmrt.so.1:_ZN13CmThreadSpace19Wavefront45SequenceEv
libcmrt.so.1:_ZN13CmThreadSpace20GetDependencyVectorsER18_CM_HAL_DEPENDENCY
libcmrt.so.1:_ZN13CmThreadSpace20GetWalkingParametersER26_CM_HAL_WALKING_PARAMETERS
libcmrt.so.1:_ZN13CmThreadSpace20Wavefront26ZSequenceEv
libcmrt.so.1:_ZN13CmThreadSpace21GetColorCountMinusOneERj
libcmrt.so.1:_ZN13CmThreadSpace21Set26ZIMacroBlockSizeEjj
libcmrt.so.1:_ZN13CmThreadSpace22Get26ZIDispatchPatternER25_CM_26ZI_DISPATCH_PATTERN
libcmrt.so.1:_ZN13CmThreadSpace22Set26ZIDispatchPatternE25_CM_26ZI_DISPATCH_PATTERN
libcmrt.so.1:_ZN13CmThreadSpace22Wavefront26ZISeqVVHH26Ev
libcmrt.so.1:_ZN13CmThreadSpace22Wavefront26ZISeqVVHV26Ev
libcmrt.so.1:_ZN13CmThreadSpace24GetDependencyPatternTypeER22_CM_DEPENDENCY_PATTERN
libcmrt.so.1:_ZN13CmThreadSpace24SetThreadSpaceColorCountEj
libcmrt.so.1:_ZN13CmThreadSpace24Wavefront26ZISeqVV26HH26Ev
libcmrt.so.1:_ZN13CmThreadSpace25CheckDependencyVectorsSetEv
libcmrt.so.1:_ZN13CmThreadSpace25CheckWalkingParametersSetEv
libcmrt.so.1:_ZN13CmThreadSpace25SelectMediaWalkingPatternE23_CM_HAL_WALKING_PATTERN
libcmrt.so.1:_ZN13CmThreadSpace26SetThreadDependencyPatternEjPiS0_
libcmrt.so.1:_ZN13CmThreadSpace27GetWavefront26ZDispatchInfoER34_CM_HAL_WAVEFRONT26Z_DISPATCH_INFO
libcmrt.so.1:_ZN13CmThreadSpace28SelectMediaWalkingParametersE26_CM_HAL_WALKING_PARAMETERS
libcmrt.so.1:_ZN13CmThreadSpace28Wavefront26ZISeqVV1x26HH1x26Ev
libcmrt.so.1:_ZN13CmThreadSpace29SelectThreadDependencyPatternE22_CM_DEPENDENCY_PATTERN
libcmrt.so.1:_ZN13CmThreadSpace29SelectThreadDependencyVectorsE18_CM_HAL_DEPENDENCY
libcmrt.so.1:_ZN13CmThreadSpace6CreateEP11CmDevice_RTjjjRPS_
libcmrt.so.1:_ZN13CmThreadSpace7DestroyERPS_
libcmrt.so.1:_ZN13CmThreadSpaceC1EP11CmDevice_RTjjj
libcmrt.so.1:_ZN13CmThreadSpaceC2EP11CmDevice_RTjjj
libcmrt.so.1:_ZN13CmThreadSpaceD1Ev
libcmrt.so.1:_ZN13CmThreadSpaceD2Ev
libcmrt.so.1:_ZN14CmDynamicArray10GetElementEj
libcmrt.so.1:_ZN14CmDynamicArray10GetMaxSizeEv
libcmrt.so.1:_ZN14CmDynamicArray10SetElementEjPKv
libcmrt.so.1:_ZN14CmDynamicArray11CreateArrayEj
libcmrt.so.1:_ZN14CmDynamicArray11DeleteArrayEv
libcmrt.so.1:_ZN14CmDynamicArray12IsValidIndexEj
libcmrt.so.1:_ZN14CmDynamicArray17GetFirstFreeIndexEv
libcmrt.so.1:_ZN14CmDynamicArray22SetElementIntoFreeSlotEPKv
libcmrt.so.1:_ZN14CmDynamicArray6DeleteEv
libcmrt.so.1:_ZN14CmDynamicArray7GetSizeEv
libcmrt.so.1:_ZN14CmDynamicArrayC1Ej
libcmrt.so.1:_ZN14CmDynamicArrayC1Ev
libcmrt.so.1:_ZN14CmDynamicArrayC2Ej
libcmrt.so.1:_ZN14CmDynamicArrayC2Ev
libcmrt.so.1:_ZN14CmDynamicArrayD1Ev
libcmrt.so.1:_ZN14CmDynamicArrayD2Ev
libcmrt.so.1:_ZN14CmDynamicArrayaSERKS_
libcmrt.so.1:_ZN14CmSurface2D_RT10InitializeEj
libcmrt.so.1:_ZN14CmSurface2D_RT11InitSurfaceEjP7CmEvent
libcmrt.so.1:_ZN14CmSurface2D_RT11ReadSurfaceEPhP7CmEventm
libcmrt.so.1:_ZN14CmSurface2D_RT12WriteSurfaceEPKhP7CmEventm
libcmrt.so.1:_ZN14CmSurface2D_RT13GetIndexFor2DERj
libcmrt.so.1:_ZN14CmSurface2D_RT14GetSurfaceDescERjS0_R13_VA_CM_FORMATS0_
libcmrt.so.1:_ZN14CmSurface2D_RT15SetReadSyncFlagEv
libcmrt.so.1:_ZN14CmSurface2D_RT17ReadSurfaceStrideEPhP7CmEventjm
libcmrt.so.1:_ZN14CmSurface2D_RT18WriteSurfaceStrideEPKhP7CmEventjm
libcmrt.so.1:_ZN14CmSurface2D_RT19GetSubResourceIndexERj
libcmrt.so.1:_ZN14CmSurface2D_RT19SetSubResourceIndexEj
libcmrt.so.1:_ZN14CmSurface2D_RT20SetSurfacePropertiesEjj13_VA_CM_FORMAT
libcmrt.so.1:_ZN14CmSurface2D_RT21ReadSurfaceFullStrideEPhP7CmEventjjm
libcmrt.so.1:_ZN14CmSurface2D_RT22SetMemoryObjectControlE22_MEMORY_OBJECT_CONTROL12_MEMORY_TYPEj
libcmrt.so.1:_ZN14CmSurface2D_RT22WriteSurfaceFullStrideEPKhP7CmEventjjm
libcmrt.so.1:_ZN14CmSurface2D_RT25SetSurfaceStateDimensionsEjjP12SurfaceIndex
libcmrt.so.1:_ZN14CmSurface2D_RT6CreateEjjjjj13_VA_CM_FORMATjP16CmSurfaceManagerRPS_
libcmrt.so.1:_ZN14CmSurface2D_RT8GetIndexERP12SurfaceIndex
libcmrt.so.1:_ZN14CmSurface2D_RT9GetHandleERj
libcmrt.so.1:_ZN14CmSurface2D_RTC1Ejjjj13_VA_CM_FORMATP16CmSurfaceManagerj
libcmrt.so.1:_ZN14CmSurface2D_RTC2Ejjjj13_VA_CM_FORMATP16CmSurfaceManagerj
libcmrt.so.1:_ZN14CmSurface2D_RTD0Ev
libcmrt.so.1:_ZN14CmSurface2D_RTD1Ev
libcmrt.so.1:_ZN14CmSurface2D_RTD2Ev
libcmrt.so.1:_ZN14CmTaskInternal10GetSLMSizeERj
libcmrt.so.1:_ZN14CmTaskInternal10InitializeEPK13CmThreadSpacej
libcmrt.so.1:_ZN14CmTaskInternal10InitializeEPK18CmThreadGroupSpace
libcmrt.so.1:_ZN14CmTaskInternal10InitializeEjjj
libcmrt.so.1:_ZN14CmTaskInternal11GetLastTaskERj
libcmrt.so.1:_ZN14CmTaskInternal11GetTaskTypeERj
libcmrt.so.1:_ZN14CmTaskInternal12GetTaskEventERP10CmEvent_RT
libcmrt.so.1:_ZN14CmTaskInternal12SetTaskEventEP10CmEvent_RT
libcmrt.so.1:_ZN14CmTaskInternal13GetKernelDataEjRP12CmKernelData
libcmrt.so.1:_ZN14CmTaskInternal13GetSyncBitmapEv
libcmrt.so.1:_ZN14CmTaskInternal13GetTaskStatusER10_CM_STATUS
libcmrt.so.1:_ZN14CmTaskInternal13ReleaseKernelEv
libcmrt.so.1:_ZN14CmTaskInternal14GetKernelCountERj
libcmrt.so.1:_ZN14CmTaskInternal14GetPowerOptionEv
libcmrt.so.1:_ZN14CmTaskInternal14SetPowerOptionEP26_CM_HAL_POWER_OPTION_PARAM
libcmrt.so.1:_ZN14CmTaskInternal15GetTaskSurfacesERPj
libcmrt.so.1:_ZN14CmTaskInternal17GetKernelDataSizeEjRj
libcmrt.so.1:_ZN14CmTaskInternal17GetPreemptionModeEv
libcmrt.so.1:_ZN14CmTaskInternal17GetWalkingPatternER23_CM_HAL_WALKING_PATTERN
libcmrt.so.1:_ZN14CmTaskInternal17SetPreemptionModeE22CM_HAL_PREEMPTION_MODE
libcmrt.so.1:_ZN14CmTaskInternal18GetThreadSpaceSizeERjS0_
libcmrt.so.1:_ZN14CmTaskInternal19GetTotalThreadCountERj
libcmrt.so.1:_ZN14CmTaskInternal20GetDependencyPatternER22_CM_DEPENDENCY_PATTERN
libcmrt.so.1:_ZN14CmTaskInternal20GetDependencyVectorsER18_CM_HAL_DEPENDENCY
libcmrt.so.1:_ZN14CmTaskInternal20GetKernelCoordinatesEjRPv
libcmrt.so.1:_ZN14CmTaskInternal20GetKernelCurbeOffsetEj
libcmrt.so.1:_ZN14CmTaskInternal20GetNumTasksGeneratedERj
libcmrt.so.1:_ZN14CmTaskInternal20GetWalkingParametersER26_CM_HAL_WALKING_PARAMETERS
libcmrt.so.1:_ZN14CmTaskInternal20IsThreadSpaceCreatedEv
libcmrt.so.1:_ZN14CmTaskInternal21CreateThreadSpaceDataEPK13CmThreadSpace
libcmrt.so.1:_ZN14CmTaskInternal21GetColorCountMinusOneERj
libcmrt.so.1:_ZN14CmTaskInternal23GetThreadGroupSpaceSizeERjS0_S0_S0_
libcmrt.so.1:_ZN14CmTaskInternal24GetKernelDependencyMasksEjRPv
libcmrt.so.1:_ZN14CmTaskInternal25CheckDependencyVectorsSetEv
libcmrt.so.1:_ZN14CmTaskInternal25CheckWalkingParametersSetEv
libcmrt.so.1:_ZN14CmTaskInternal25IsThreadGroupSpaceCreatedEv
libcmrt.so.1:_ZN14CmTaskInternal26IsThreadCoordinatesExistedEv
libcmrt.so.1:_ZN14CmTaskInternal6CreateEjjPP8CmKernelPK13CmThreadSpaceP11CmDevice_RTmRPS_
libcmrt.so.1:_ZN14CmTaskInternal6CreateEjjPP8CmKernelPK18CmThreadGroupSpaceP11CmDevice_RTmRPS_
libcmrt.so.1:_ZN14CmTaskInternal6CreateEjjPP8CmKernelRPS_jjjP11CmDevice_RT
libcmrt.so.1:_ZN14CmTaskInternal7DestroyERPS_
libcmrt.so.1:_ZN14CmTaskInternal8GetHintsERj
libcmrt.so.1:_ZN14CmTaskInternal9GetKernelEjRP8CmKernel
libcmrt.so.1:_ZN14CmTaskInternalC1EjjPP8CmKernelP11CmDevice_RTm
libcmrt.so.1:_ZN14CmTaskInternalC2EjjPP8CmKernelP11CmDevice_RTm
libcmrt.so.1:_ZN14CmTaskInternalD1Ev
libcmrt.so.1:_ZN14CmTaskInternalD2Ev
libcmrt.so.1:_ZN16CmSurface2DUP_RT10InitializeEj
libcmrt.so.1:_ZN16CmSurface2DUP_RT14GetSurfaceDescERjS0_R13_VA_CM_FORMATS0_
libcmrt.so.1:_ZN16CmSurface2DUP_RT22SetMemoryObjectControlE22_MEMORY_OBJECT_CONTROL12_MEMORY_TYPEj
libcmrt.so.1:_ZN16CmSurface2DUP_RT6CreateEjjjj13_VA_CM_FORMATP16CmSurfaceManagerRPS_
libcmrt.so.1:_ZN16CmSurface2DUP_RT8GetIndexERP12SurfaceIndex
libcmrt.so.1:_ZN16CmSurface2DUP_RT9GetHandleERj
libcmrt.so.1:_ZN16CmSurface2DUP_RTC1Ejjj13_VA_CM_FORMATP16CmSurfaceManager
libcmrt.so.1:_ZN16CmSurface2DUP_RTC2Ejjj13_VA_CM_FORMATP16CmSurfaceManager
libcmrt.so.1:_ZN16CmSurface2DUP_RTD0Ev
libcmrt.so.1:_ZN16CmSurface2DUP_RTD1Ev
libcmrt.so.1:_ZN16CmSurface2DUP_RTD2Ev
libcmrt.so.1:_ZN16CmSurfaceManager10FreeBufferEj
libcmrt.so.1:_ZN16CmSurfaceManager10GetSurfaceEjRP9CmSurface
libcmrt.so.1:_ZN16CmSurfaceManager10InitializeE18_CM_HAL_MAX_VALUES21_CM_HAL_MAX_VALUES_EX
libcmrt.so.1:_ZN16CmSurfaceManager11GetCmDeviceERP11CmDevice_RT
libcmrt.so.1:_ZN16CmSurfaceManager12CreateBufferEj15_CM_BUFFER_TYPERP11CmBuffer_RTP14_CmOsResource_RPv
libcmrt.so.1:_ZN16CmSurfaceManager12UpdateBufferEP11CmBuffer_RTj
libcmrt.so.1:_ZN16CmSurfaceManager13FreeSurface2DEj
libcmrt.so.1:_ZN16CmSurfaceManager13GetFormatSizeE13_VA_CM_FORMATRj
libcmrt.so.1:_ZN16CmSurfaceManager14AllocateBufferEj15_CM_BUFFER_TYPERjP14_CmOsResource_Pv
libcmrt.so.1:_ZN16CmSurfaceManager14DestroySurfaceERP11CmBuffer_RT21_SURFACE_DESTROY_KIND
libcmrt.so.1:_ZN16CmSurfaceManager14DestroySurfaceERP14CmSurface2D_RT21_SURFACE_DESTROY_KIND
libcmrt.so.1:_ZN16CmSurfaceManager14DestroySurfaceERP16CmSurface2DUP_RT21_SURFACE_DESTROY_KIND
libcmrt.so.1:_ZN16CmSurfaceManager14GetSurfaceInfoEP14_CmOsResource_RjS2_S2_R13_VA_CM_FORMAT
libcmrt.so.1:_ZN16CmSurfaceManager15CmFmtToGenHwFmtE13_VA_CM_FORMAT
libcmrt.so.1:_ZN16CmSurfaceManager15CreateSurface2DEP14_CmOsResource_jRP14CmSurface2D_RT
libcmrt.so.1:_ZN16CmSurfaceManager15CreateSurface2DEjjjj13_VA_CM_FORMATRP14CmSurface2D_RT
libcmrt.so.1:_ZN16CmSurfaceManager15FreeSurface2DUPEj
libcmrt.so.1:_ZN16CmSurfaceManager15GetSurfaceStateERPi
libcmrt.so.1:_ZN16CmSurfaceManager15UpdateSurface2DEP14CmSurface2D_RTjj13_VA_CM_FORMAT
libcmrt.so.1:_ZN16CmSurfaceManager17AllocateSurface2DEjj13_VA_CM_FORMATP14_CmOsResource_Rj
libcmrt.so.1:_ZN16CmSurfaceManager17AllocateSurface2DEjj13_VA_CM_FORMATRjS1_
libcmrt.so.1:_ZN16CmSurfaceManager17CreateSurface2DUPEjj13_VA_CM_FORMATPvRP16CmSurface2DUP_RT
libcmrt.so.1:_ZN16CmSurfaceManager18GetSurface2dInPoolEjj13_VA_CM_FORMATRP14CmSurface2D_RT
libcmrt.so.1:_ZN16CmSurfaceManager18GetSurfaceIdInPoolEi
libcmrt.so.1:_ZN16CmSurfaceManager18GetSurfacePoolSizeEv
libcmrt.so.1:_ZN16CmSurfaceManager19AllocateSurface2DUPEjj13_VA_CM_FORMATPvRj
libcmrt.so.1:_ZN16CmSurfaceManager19GetFreeSurfaceIndexERj
libcmrt.so.1:_ZN16CmSurfaceManager20AllocateSurfaceIndexEjjj13_VA_CM_FORMATRjS1_Pv
libcmrt.so.1:_ZN16CmSurfaceManager20DestroySurfaceInPoolERj21_SURFACE_DESTROY_KIND
libcmrt.so.1:_ZN16CmSurfaceManager20GetReuseSurfaceIndexEjjj13_VA_CM_FORMAT
libcmrt.so.1:_ZN16CmSurfaceManager20Surface2DSanityCheckEjj13_VA_CM_FORMAT
libcmrt.so.1:_ZN16CmSurfaceManager22GetPixelBytesAndHeightEjj13_VA_CM_FORMATRjS1_
libcmrt.so.1:_ZN16CmSurfaceManager26DestroySurfaceArrayElementEj
libcmrt.so.1:_ZN16CmSurfaceManager27GetFreeSurfaceIndexFromPoolERj
libcmrt.so.1:_ZN16CmSurfaceManager28TouchSurfaceInPoolForDestroyEv
libcmrt.so.1:_ZN16CmSurfaceManager29UPDATE_PROFILE_FOR_1D_SURFACEEjjj
libcmrt.so.1:_ZN16CmSurfaceManager29UPDATE_PROFILE_FOR_2D_SURFACEEjjj13_VA_CM_FORMATj
libcmrt.so.1:_ZN16CmSurfaceManager29UPDATE_STATE_FOR_REAL_DESTROYEj19_CM_ENUM_CLASS_TYPE
libcmrt.so.1:_ZN16CmSurfaceManager30UPDATE_STATE_FOR_REUSE_DESTROYE21_SURFACE_DESTROY_KINDj
libcmrt.so.1:_ZN16CmSurfaceManager30UPDATE_STATE_FOR_SURFACE_REUSEEj
libcmrt.so.1:_ZN16CmSurfaceManager32UPDATE_STATE_FOR_DELAYED_DESTROYE21_SURFACE_DESTROY_KINDj
libcmrt.so.1:_ZN16CmSurfaceManager6CreateEP11CmDevice_RT18_CM_HAL_MAX_VALUES21_CM_HAL_MAX_VALUES_EXRPS_
libcmrt.so.1:_ZN16CmSurfaceManager7DestroyERPS_
libcmrt.so.1:_ZN16CmSurfaceManagerC1EP11CmDevice_RT
libcmrt.so.1:_ZN16CmSurfaceManagerC2EP11CmDevice_RT
libcmrt.so.1:_ZN16CmSurfaceManagerD1Ev
libcmrt.so.1:_ZN16CmSurfaceManagerD2Ev
libcmrt.so.1:_ZN21CmThreadGroupSpace_RT10InitializeEv
libcmrt.so.1:_ZN21CmThreadGroupSpace_RT18GetIndexInTGsArrayEv
libcmrt.so.1:_ZN21CmThreadGroupSpace_RT6CreateEP11CmDevice_RTjjjjjRP18CmThreadGroupSpace
libcmrt.so.1:_ZN21CmThreadGroupSpace_RT7DestroyERP18CmThreadGroupSpace
libcmrt.so.1:_ZN21CmThreadGroupSpace_RTC1EP11CmDevice_RTjjjjj
libcmrt.so.1:_ZN21CmThreadGroupSpace_RTC2EP11CmDevice_RTjjjjj
libcmrt.so.1:_ZN21CmThreadGroupSpace_RTD0Ev
libcmrt.so.1:_ZN21CmThreadGroupSpace_RTD1Ev
libcmrt.so.1:_ZN21CmThreadGroupSpace_RTD2Ev
libcmrt.so.1:_ZN6CQueue3PopEv
libcmrt.so.1:_ZN6CQueue3TopEv
libcmrt.so.1:_ZN6CQueue4PushEPv
libcmrt.so.1:_ZN6CQueue7GetNextEPv
libcmrt.so.1:_ZN9CmSurface10InitializeEj
libcmrt.so.1:_ZN9CmSurface16FlushDeviceQueueEP7CmEvent
libcmrt.so.1:_ZN9CmSurface16TouchDeviceQueueEv
libcmrt.so.1:_ZN9CmSurface19GetMemoryObjectCtrlEP24_CM_SURFACE_MEM_OBJ_CTRL
libcmrt.so.1:_ZN9CmSurface20WaitForReferenceFreeEv
libcmrt.so.1:_ZN9CmSurface22SetMemoryObjectControlE22_MEMORY_OBJECT_CONTROL12_MEMORY_TYPEj
libcmrt.so.1:_ZN9CmSurface27MemoryObjectCtrlPolicyCheckE22_MEMORY_OBJECT_CONTROL12_MEMORY_TYPEj
libcmrt.so.1:_ZN9CmSurface7DestroyERPS_
libcmrt.so.1:_ZN9CmSurfaceC1EP16CmSurfaceManagerj
libcmrt.so.1:_ZN9CmSurfaceC2EP16CmSurfaceManagerj
libcmrt.so.1:_ZN9CmSurfaceD0Ev
libcmrt.so.1:_ZN9CmSurfaceD1Ev
libcmrt.so.1:_ZN9CmSurfaceD2Ev
libcmrt.so.1:_ZN9CmTask_RT10InitializeEv
libcmrt.so.1:_ZN9CmTask_RT13GetSyncBitmapEv
libcmrt.so.1:_ZN9CmTask_RT14GetKernelCountEv
libcmrt.so.1:_ZN9CmTask_RT14GetPowerOptionEv
libcmrt.so.1:_ZN9CmTask_RT14SetPowerOptionEP26_CM_HAL_POWER_OPTION_PARAM
libcmrt.so.1:_ZN9CmTask_RT16GetKernelPointerEj
libcmrt.so.1:_ZN9CmTask_RT17GetPreemptionModeEv
libcmrt.so.1:_ZN9CmTask_RT17SetPreemptionModeE22CM_HAL_PREEMPTION_MODE
libcmrt.so.1:_ZN9CmTask_RT19GetIndexInTaskArrayEv
libcmrt.so.1:_ZN9CmTask_RT31IntegrityCheckKernelThreadspaceEv
libcmrt.so.1:_ZN9CmTask_RT5ResetEv
libcmrt.so.1:_ZN9CmTask_RT6CreateEP11CmDevice_RTjjRPS_
libcmrt.so.1:_ZN9CmTask_RT7AddSyncEv
libcmrt.so.1:_ZN9CmTask_RT7DestroyERPS_
libcmrt.so.1:_ZN9CmTask_RT9AddKernelEP8CmKernel
libcmrt.so.1:_ZN9CmTask_RTC1EP11CmDevice_RTjj
libcmrt.so.1:_ZN9CmTask_RTC2EP11CmDevice_RTjj
libcmrt.so.1:_ZN9CmTask_RTD0Ev
libcmrt.so.1:_ZN9CmTask_RTD1Ev
libcmrt.so.1:_ZN9CmTask_RTD2Ev
libcmrt.so.1:_ZNK13CmThreadSpace14GetDirtyStatusEv
libcmrt.so.1:_ZNK13CmThreadSpace14SetDirtyStatusE29_CM_THREAD_SPACE_DIRTY_STATUS
libcmrt.so.1:_ZNK13CmThreadSpace16GetKernelPointerEv
libcmrt.so.1:_ZNK13CmThreadSpace16SetKernelPointerEP8CmKernel
libcmrt.so.1:_ZNK13CmThreadSpace18IsThreadAssociatedEv
libcmrt.so.1:_ZNK13CmThreadSpace19KernelPointerIsNULLEv
libcmrt.so.1:_ZNK13CmThreadSpace23GetNeedSetKernelPointerEv
libcmrt.so.1:_ZNK21CmThreadGroupSpace_RT23GetThreadGroupSpaceSizeERjS0_S0_S0_
libcmrt.so.1:_ZThn16_N11CmBuffer_RTD0Ev
libcmrt.so.1:_ZThn16_N11CmBuffer_RTD1Ev
libcmrt.so.1:_ZThn8_N11CmBuffer_RT22SetMemoryObjectControlE22_MEMORY_OBJECT_CONTROL12_MEMORY_TYPEj
libcmrt.so.1:_ZThn8_N11CmBuffer_RT8GetIndexERP12SurfaceIndex
libcmrt.so.1:_ZThn8_N11CmBuffer_RTD0Ev
libcmrt.so.1:_ZThn8_N11CmBuffer_RTD1Ev
libcmrt.so.1:_ZThn8_N14CmSurface2D_RTD0Ev
libcmrt.so.1:_ZThn8_N14CmSurface2D_RTD1Ev
libcmrt.so.1:_ZThn8_N16CmSurface2DUP_RTD0Ev
libcmrt.so.1:_ZThn8_N16CmSurface2DUP_RTD1Ev
libcmrt.so.1:strcpy_s
